; Function Attrs: mustprogress nofree norecurse nosync nounwind willreturn memory(argmem: read) uwtable
define hidden noundef zeroext i1 @_ZNK4cvc58internal6ResulteqERKS1_(ptr nocapture noundef nonnull readonly align 8 dereferenceable(40) %this, ptr nocapture noundef nonnull readonly align 8 dereferenceable(40) %r) local_unnamed_addr #6 align 2 {
entry:
  %0 = load i32, ptr %this, align 8
  %1 = load i32, ptr %r, align 8
  %cmp = icmp eq i32 %0, %1
  br i1 %cmp, label %land.rhs, label %land.end

land.rhs:                                         ; preds = %entry
  %cmp4.not = icmp eq i32 %0, 3
  br i1 %cmp4.not, label %lor.rhs, label %land.end

lor.rhs:                                          ; preds = %land.rhs
  %d_unknownExplanation = getelementptr inbounds i8, ptr %this, i64 4
  %2 = load i32, ptr %d_unknownExplanation, align 4
  %d_unknownExplanation5 = getelementptr inbounds i8, ptr %r, i64 4
  %3 = load i32, ptr %d_unknownExplanation5, align 4
  %cmp6 = icmp eq i32 %2, %3
  br label %land.end

land.end:                                         ; preds = %land.rhs, %lor.rhs, %entry
  %4 = phi i1 [ false, %entry ], [ true, %land.rhs ], [ %cmp6, %lor.rhs ]
  ret i1 %4
}